target datalayout = "e-m:e-p270:32:32-p271:32:32-p272:64:64-i64:64-i128:128-f80:128-n8:16:32:64-S128"
target triple = "x86_64-pc-linux-gnu"

; Function Attrs: alwaysinline nounwind willreturn memory(none) uwtable
define internal zeroext i8 @av_clip_uint8_c(i32 noundef %0) #9 {
  %2 = alloca i8, align 1
  %3 = alloca i32, align 4
  store i32 %0, ptr %3, align 4, !tbaa !24
  %4 = load i32, ptr %3, align 4, !tbaa !24
  %5 = and i32 %4, -256
  %6 = icmp ne i32 %5, 0
  br i1 %6, label %7, label %12

7:                                                ; preds = %1
  %8 = load i32, ptr %3, align 4, !tbaa !24
  %9 = xor i32 %8, -1
  %10 = ashr i32 %9, 31
  %11 = trunc i32 %10 to i8
  store i8 %11, ptr %2, align 1
  br label %15

12:                                               ; preds = %1
  %13 = load i32, ptr %3, align 4, !tbaa !24
  %14 = trunc i32 %13 to i8
  store i8 %14, ptr %2, align 1
  br label %15

15:                                               ; preds = %12, %7
  %16 = load i8, ptr %2, align 1
  ret i8 %16
}

; Function Attrs: nounwind uwtable
define internal void @limitdiff8(ptr noundef %0, ptr noundef %1, ptr noundef %2, ptr noundef %3, i32 noundef %4, i32 noundef %5, i32 noundef %6, i32 noundef %7) #2 {
  %9 = alloca ptr, align 8
  %10 = alloca ptr, align 8
  %11 = alloca ptr, align 8
  %12 = alloca ptr, align 8
  %13 = alloca i32, align 4
  %14 = alloca i32, align 4
  %15 = alloca i32, align 4
  %16 = alloca i32, align 4
  %17 = alloca i32, align 4
  %18 = alloca i32, align 4
  %19 = alloca i32, align 4
  store ptr %0, ptr %9, align 8, !tbaa !86
  store ptr %1, ptr %10, align 8, !tbaa !86
  store ptr %2, ptr %11, align 8, !tbaa !86
  store ptr %3, ptr %12, align 8, !tbaa !86
  store i32 %4, ptr %13, align 4, !tbaa !24
  store i32 %5, ptr %14, align 4, !tbaa !24
  store i32 %6, ptr %15, align 4, !tbaa !24
  store i32 %7, ptr %16, align 4, !tbaa !24
  call void @llvm.lifetime.start.p0(i64 4, ptr %17) #10
  store i32 0, ptr %17, align 4, !tbaa !24
  br label %20

20:                                               ; preds = %135, %8
  %21 = load i32, ptr %17, align 4, !tbaa !24
  %22 = load i32, ptr %15, align 4, !tbaa !24
  %23 = icmp slt i32 %21, %22
  br i1 %23, label %25, label %24

24:                                               ; preds = %20
  call void @llvm.lifetime.end.p0(i64 4, ptr %17) #10
  br label %138

25:                                               ; preds = %20
  call void @llvm.lifetime.start.p0(i64 4, ptr %18) #10
  %26 = load ptr, ptr %9, align 8, !tbaa !86
  %27 = load i32, ptr %17, align 4, !tbaa !24
  %28 = sext i32 %27 to i64
  %29 = getelementptr inbounds i8, ptr %26, i64 %28
  %30 = load i8, ptr %29, align 1, !tbaa !103
  %31 = zext i8 %30 to i32
  %32 = load ptr, ptr %11, align 8, !tbaa !86
  %33 = load i32, ptr %17, align 4, !tbaa !24
  %34 = sext i32 %33 to i64
  %35 = getelementptr inbounds i8, ptr %32, i64 %34
  %36 = load i8, ptr %35, align 1, !tbaa !103
  %37 = zext i8 %36 to i32
  %38 = sub nsw i32 %31, %37
  store i32 %38, ptr %18, align 4, !tbaa !24
  call void @llvm.lifetime.start.p0(i64 4, ptr %19) #10
  %39 = load ptr, ptr %9, align 8, !tbaa !86
  %40 = load i32, ptr %17, align 4, !tbaa !24
  %41 = sext i32 %40 to i64
  %42 = getelementptr inbounds i8, ptr %39, i64 %41
  %43 = load i8, ptr %42, align 1, !tbaa !103
  %44 = zext i8 %43 to i32
  %45 = load ptr, ptr %12, align 8, !tbaa !86
  %46 = load i32, ptr %17, align 4, !tbaa !24
  %47 = sext i32 %46 to i64
  %48 = getelementptr inbounds i8, ptr %45, i64 %47
  %49 = load i8, ptr %48, align 1, !tbaa !103
  %50 = zext i8 %49 to i32
  %51 = sub nsw i32 %44, %50
  %52 = icmp sge i32 %51, 0
  br i1 %52, label %53, label %67

53:                                               ; preds = %25
  %54 = load ptr, ptr %9, align 8, !tbaa !86
  %55 = load i32, ptr %17, align 4, !tbaa !24
  %56 = sext i32 %55 to i64
  %57 = getelementptr inbounds i8, ptr %54, i64 %56
  %58 = load i8, ptr %57, align 1, !tbaa !103
  %59 = zext i8 %58 to i32
  %60 = load ptr, ptr %12, align 8, !tbaa !86
  %61 = load i32, ptr %17, align 4, !tbaa !24
  %62 = sext i32 %61 to i64
  %63 = getelementptr inbounds i8, ptr %60, i64 %62
  %64 = load i8, ptr %63, align 1, !tbaa !103
  %65 = zext i8 %64 to i32
  %66 = sub nsw i32 %59, %65
  br label %82

67:                                               ; preds = %25
  %68 = load ptr, ptr %9, align 8, !tbaa !86
  %69 = load i32, ptr %17, align 4, !tbaa !24
  %70 = sext i32 %69 to i64
  %71 = getelementptr inbounds i8, ptr %68, i64 %70
  %72 = load i8, ptr %71, align 1, !tbaa !103
  %73 = zext i8 %72 to i32
  %74 = load ptr, ptr %12, align 8, !tbaa !86
  %75 = load i32, ptr %17, align 4, !tbaa !24
  %76 = sext i32 %75 to i64
  %77 = getelementptr inbounds i8, ptr %74, i64 %76
  %78 = load i8, ptr %77, align 1, !tbaa !103
  %79 = zext i8 %78 to i32
  %80 = sub nsw i32 %73, %79
  %81 = sub nsw i32 0, %80
  br label %82

82:                                               ; preds = %67, %53
  %83 = phi i32 [ %66, %53 ], [ %81, %67 ]
  store i32 %83, ptr %19, align 4, !tbaa !24
  %84 = load i32, ptr %19, align 4, !tbaa !24
  %85 = load i32, ptr %13, align 4, !tbaa !24
  %86 = icmp sle i32 %84, %85
  br i1 %86, label %87, label %97

87:                                               ; preds = %82
  %88 = load ptr, ptr %9, align 8, !tbaa !86
  %89 = load i32, ptr %17, align 4, !tbaa !24
  %90 = sext i32 %89 to i64
  %91 = getelementptr inbounds i8, ptr %88, i64 %90
  %92 = load i8, ptr %91, align 1, !tbaa !103
  %93 = load ptr, ptr %10, align 8, !tbaa !86
  %94 = load i32, ptr %17, align 4, !tbaa !24
  %95 = sext i32 %94 to i64
  %96 = getelementptr inbounds i8, ptr %93, i64 %95
  store i8 %92, ptr %96, align 1, !tbaa !103
  br label %134

97:                                               ; preds = %82
  %98 = load i32, ptr %19, align 4, !tbaa !24
  %99 = load i32, ptr %14, align 4, !tbaa !24
  %100 = icmp sge i32 %98, %99
  br i1 %100, label %101, label %111

101:                                              ; preds = %97
  %102 = load ptr, ptr %11, align 8, !tbaa !86
  %103 = load i32, ptr %17, align 4, !tbaa !24
  %104 = sext i32 %103 to i64
  %105 = getelementptr inbounds i8, ptr %102, i64 %104
  %106 = load i8, ptr %105, align 1, !tbaa !103
  %107 = load ptr, ptr %10, align 8, !tbaa !86
  %108 = load i32, ptr %17, align 4, !tbaa !24
  %109 = sext i32 %108 to i64
  %110 = getelementptr inbounds i8, ptr %107, i64 %109
  store i8 %106, ptr %110, align 1, !tbaa !103
  br label %133

111:                                              ; preds = %97
  %112 = load ptr, ptr %11, align 8, !tbaa !86
  %113 = load i32, ptr %17, align 4, !tbaa !24
  %114 = sext i32 %113 to i64
  %115 = getelementptr inbounds i8, ptr %112, i64 %114
  %116 = load i8, ptr %115, align 1, !tbaa !103
  %117 = zext i8 %116 to i32
  %118 = load i32, ptr %18, align 4, !tbaa !24
  %119 = load i32, ptr %14, align 4, !tbaa !24
  %120 = load i32, ptr %19, align 4, !tbaa !24
  %121 = sub nsw i32 %119, %120
  %122 = mul nsw i32 %118, %121
  %123 = load i32, ptr %14, align 4, !tbaa !24
  %124 = load i32, ptr %13, align 4, !tbaa !24
  %125 = sub nsw i32 %123, %124
  %126 = sdiv i32 %122, %125
  %127 = add nsw i32 %117, %126
  %128 = call zeroext i8 @av_clip_uint8_c(i32 noundef %127) #12
  %129 = load ptr, ptr %10, align 8, !tbaa !86
  %130 = load i32, ptr %17, align 4, !tbaa !24
  %131 = sext i32 %130 to i64
  %132 = getelementptr inbounds i8, ptr %129, i64 %131
  store i8 %128, ptr %132, align 1, !tbaa !103
  br label %133

133:                                              ; preds = %111, %101
  br label %134

134:                                              ; preds = %133, %87
  call void @llvm.lifetime.end.p0(i64 4, ptr %19) #10
  call void @llvm.lifetime.end.p0(i64 4, ptr %18) #10
  br label %135

135:                                              ; preds = %134
  %136 = load i32, ptr %17, align 4, !tbaa !24
  %137 = add nsw i32 %136, 1
  store i32 %137, ptr %17, align 4, !tbaa !24
  br label %20, !llvm.loop !104

138:                                              ; preds = %24
  ret void
}