; Function Attrs: nofree norecurse nosync nounwind memory(argmem: readwrite) uwtable
define internal void @limitdiff8(ptr noundef readonly captures(none) %0, ptr noundef writeonly captures(none) %1, ptr noundef readonly captures(none) %2, ptr noundef readonly captures(none) %3, i32 noundef %4, i32 noundef %5, i32 noundef %6, i32 %7) #7 {
  %9 = icmp sgt i32 %6, 0
  br i1 %9, label %.lr.ph, label %._crit_edge

.lr.ph:                                           ; preds = %8
  %10 = sub nsw i32 %5, %4
  %wide.trip.count = zext nneg i32 %6 to i64
  br label %11

._crit_edge:                                      ; preds = %32, %8
  ret void

11:                                               ; preds = %.lr.ph, %32
  %indvars.iv = phi i64 [ 0, %.lr.ph ], [ %indvars.iv.next, %32 ]
  %12 = getelementptr inbounds nuw i8, ptr %0, i64 %indvars.iv
  %13 = load i8, ptr %12, align 1, !tbaa !88
  %14 = zext i8 %13 to i32
  %15 = getelementptr inbounds nuw i8, ptr %2, i64 %indvars.iv
  %16 = load i8, ptr %15, align 1, !tbaa !88
  %17 = zext i8 %16 to i32
  %18 = sub nsw i32 %14, %17
  %19 = getelementptr inbounds nuw i8, ptr %3, i64 %indvars.iv
  %20 = load i8, ptr %19, align 1, !tbaa !88
  %21 = zext i8 %20 to i32
  %22 = sub nsw i32 %14, %21
  %23 = tail call i32 @llvm.abs.i32(i32 %22, i1 true)
  %.not = icmp sgt i32 %23, %4
  br i1 %.not, label %24, label %32

24:                                               ; preds = %11
  %.not43 = icmp slt i32 %23, %5
  br i1 %.not43, label %25, label %32

25:                                               ; preds = %24
  %26 = sub nsw i32 %5, %23
  %27 = mul nsw i32 %26, %18
  %28 = sdiv i32 %27, %10
  %29 = add nsw i32 %28, %17
  %.not.i = icmp ult i32 %29, 256
  %isnotneg.i = icmp sgt i32 %29, -1
  %30 = sext i1 %isnotneg.i to i8
  %31 = trunc nuw i32 %29 to i8
  %.0.i = select i1 %.not.i, i8 %31, i8 %30
  br label %32

32:                                               ; preds = %24, %11, %25
  %.sink = phi i8 [ %.0.i, %25 ], [ %13, %11 ], [ %16, %24 ]
  %33 = getelementptr inbounds nuw i8, ptr %1, i64 %indvars.iv
  store i8 %.sink, ptr %33, align 1, !tbaa !88
  %indvars.iv.next = add nuw nsw i64 %indvars.iv, 1
  %exitcond.not = icmp eq i64 %indvars.iv.next, %wide.trip.count
  br i1 %exitcond.not, label %._crit_edge, label %11, !llvm.loop !89
}